(dp1
S'10'
p2
(dp3
g2
(lp4
g2
asS'1'
(lp5
g2
aS'1'
asS'3'
(lp6
g2
aS'3'
asS'2'
(lp7
g2
aS'1'
aS'2'
asS'5'
(lp8
g2
aS'1'
aS'2'
aS'5'
asS'4'
(lp9
g2
aS'1'
aS'2'
aS'4'
asS'7'
(lp10
g2
aS'1'
aS'2'
aS'5'
aS'7'
asS'6'
(lp11
g2
aS'1'
aS'2'
aS'5'
aS'6'
asS'9'
(lp12
g2
aS'1'
aS'2'
aS'5'
aS'7'
aS'9'
asS'8'
(lp13
g2
aS'1'
aS'2'
aS'4'
aS'8'
assS'1'
(dp14
g2
(lp15
S'1'
ag2
asS'1'
(lp16
S'1'
asS'3'
(lp17
S'1'
ag2
aS'3'
asS'2'
(lp18
S'1'
aS'2'
asS'5'
(lp19
S'1'
aS'2'
aS'5'
asS'4'
(lp20
S'1'
aS'2'
aS'4'
asS'7'
(lp21
S'1'
aS'2'
aS'5'
aS'7'
asS'6'
(lp22
S'1'
aS'2'
aS'5'
aS'6'
asS'9'
(lp23
S'1'
aS'2'
aS'5'
aS'7'
aS'9'
asS'8'
(lp24
S'1'
aS'2'
aS'4'
aS'8'
assS'3'
(dp25
S'10'
p26
(lp27
S'3'
ag26
asS'1'
(lp28
S'3'
ag26
aS'1'
asS'3'
(lp29
S'3'
asS'2'
(lp30
S'3'
aS'2'
asS'5'
(lp31
S'3'
aS'2'
aS'5'
asS'4'
(lp32
S'3'
aS'2'
aS'4'
asS'7'
(lp33
S'3'
aS'2'
aS'5'
aS'7'
asS'6'
(lp34
S'3'
aS'2'
aS'5'
aS'6'
asS'9'
(lp35
S'3'
aS'2'
aS'5'
aS'7'
aS'9'
asS'8'
(lp36
S'3'
aS'2'
aS'4'
aS'8'
assS'2'
(dp37
g2
(lp38
S'2'
aS'1'
ag2
asS'1'
(lp39
S'2'
aS'1'
asS'3'
(lp40
S'2'
aS'3'
asS'2'
(lp41
S'2'
asS'5'
(lp42
S'2'
aS'5'
asS'4'
(lp43
S'2'
aS'4'
asS'7'
(lp44
S'2'
aS'5'
aS'7'
asS'6'
(lp45
S'2'
aS'5'
aS'6'
asS'9'
(lp46
S'2'
aS'5'
aS'7'
aS'9'
asS'8'
(lp47
S'2'
aS'4'
aS'8'
assS'5'
(dp48
g2
(lp49
S'5'
aS'2'
aS'1'
ag2
asS'1'
(lp50
S'5'
aS'2'
aS'1'
asS'3'
(lp51
S'5'
aS'2'
aS'3'
asS'2'
(lp52
S'5'
aS'2'
asS'5'
(lp53
S'5'
asS'4'
(lp54
S'5'
aS'2'
aS'4'
asS'7'
(lp55
S'5'
aS'7'
asS'6'
(lp56
S'5'
aS'6'
asS'9'
(lp57
S'5'
aS'7'
aS'9'
asS'8'
(lp58
S'5'
aS'7'
aS'8'
assS'4'
(dp59
g2
(lp60
S'4'
aS'2'
aS'1'
ag2
asS'1'
(lp61
S'4'
aS'2'
aS'1'
asS'3'
(lp62
S'4'
aS'2'
aS'3'
asS'2'
(lp63
S'4'
aS'2'
asS'5'
(lp64
S'4'
aS'2'
aS'5'
asS'4'
(lp65
S'4'
asS'7'
(lp66
S'4'
aS'7'
asS'6'
(lp67
S'4'
aS'7'
aS'6'
asS'9'
(lp68
S'4'
aS'7'
aS'9'
asS'8'
(lp69
S'4'
aS'8'
assS'7'
(dp70
g2
(lp71
S'7'
aS'5'
aS'2'
aS'1'
ag2
asS'1'
(lp72
S'7'
aS'5'
aS'2'
aS'1'
asS'3'
(lp73
S'7'
aS'5'
aS'2'
aS'3'
asS'2'
(lp74
S'7'
aS'5'
aS'2'
asS'5'
(lp75
S'7'
aS'5'
asS'4'
(lp76
S'7'
aS'4'
asS'7'
(lp77
S'7'
asS'6'
(lp78
S'7'
aS'6'
asS'9'
(lp79
S'7'
aS'9'
asS'8'
(lp80
S'7'
aS'8'
assS'6'
(dp81
g2
(lp82
S'6'
aS'5'
aS'2'
aS'1'
ag2
asS'1'
(lp83
S'6'
aS'5'
aS'2'
aS'1'
asS'3'
(lp84
S'6'
aS'5'
aS'2'
aS'3'
asS'2'
(lp85
S'6'
aS'5'
aS'2'
asS'5'
(lp86
S'6'
aS'5'
asS'4'
(lp87
S'6'
aS'7'
aS'4'
asS'7'
(lp88
S'6'
aS'7'
asS'6'
(lp89
S'6'
asS'9'
(lp90
S'6'
aS'7'
aS'9'
asS'8'
(lp91
S'6'
aS'7'
aS'8'
assS'9'
(dp92
g2
(lp93
S'9'
aS'7'
aS'5'
aS'2'
aS'1'
ag2
asS'1'
(lp94
S'9'
aS'7'
aS'5'
aS'2'
aS'1'
asS'3'
(lp95
S'9'
aS'7'
aS'5'
aS'2'
aS'3'
asS'2'
(lp96
S'9'
aS'7'
aS'5'
aS'2'
asS'5'
(lp97
S'9'
aS'7'
aS'5'
asS'4'
(lp98
S'9'
aS'7'
aS'4'
asS'7'
(lp99
S'9'
aS'7'
asS'6'
(lp100
S'9'
aS'7'
aS'6'
asS'9'
(lp101
S'9'
asS'8'
(lp102
S'9'
aS'7'
aS'8'
assS'8'
(dp103
g2
(lp104
S'8'
aS'4'
aS'2'
aS'1'
ag2
asS'1'
(lp105
S'8'
aS'4'
aS'2'
aS'1'
asS'3'
(lp106
S'8'
aS'4'
aS'2'
aS'3'
asS'2'
(lp107
S'8'
aS'4'
aS'2'
asS'5'
(lp108
S'8'
aS'7'
aS'5'
asS'4'
(lp109
S'8'
aS'4'
asS'7'
(lp110
S'8'
aS'7'
asS'6'
(lp111
S'8'
aS'7'
aS'6'
asS'9'
(lp112
S'8'
aS'7'
aS'9'
asS'8'
(lp113
S'8'
ass.